target datalayout = "e-m:e-p270:32:32-p271:32:32-p272:64:64-i64:64-i128:128-f80:128-n8:16:32:64-S128"
target triple = "x86_64-pc-linux-gnu"

@corosync_totemsrp_handle = internal global ptr null, align 8
@corosync_totemnet_private_keys_list = internal global ptr null, align 8
@dissect_corosynec_totemnet.last_key_index = internal global i32 -1, align 4
@dissect_corosynec_totemnet.last_check_crypt_type_index = internal global i32 0, align 4
@__const.dissect_corosynec_totemnet.check_crypt_type_list = private unnamed_addr constant [2 x i8] c"\00\01", align 1

; Function Attrs: null_pointer_is_valid sspstrong uwtable
define internal i32 @dissect_corosynec_totemnet(ptr noundef %0, ptr noundef %1, ptr noundef %2, ptr noundef %3) #0 {
  %5 = alloca i32, align 4
  %6 = alloca ptr, align 8
  %7 = alloca ptr, align 8
  %8 = alloca ptr, align 8
  %9 = alloca ptr, align 8
  %10 = alloca i32, align 4
  %11 = alloca i32, align 4
  %12 = alloca [2 x i8], align 1
  %13 = alloca i32, align 4
  %14 = alloca i32, align 4
  %15 = alloca i32, align 4
  store ptr %0, ptr %6, align 8
  store ptr %1, ptr %7, align 8
  store ptr %2, ptr %8, align 8
  store ptr %3, ptr %9, align 8
  %16 = load ptr, ptr @corosync_totemnet_private_keys_list, align 8
  %17 = icmp ne ptr %16, null
  br i1 %17, label %18, label %98

18:                                               ; preds = %4
  call void @llvm.lifetime.start.p0(i64 4, ptr %10) #9
  call void @llvm.lifetime.start.p0(i64 4, ptr %11) #9
  store i32 -1, ptr %11, align 4
  call void @llvm.lifetime.start.p0(i64 2, ptr %12) #9
  call void @llvm.memcpy.p0.p0.i64(ptr align 1 %12, ptr align 1 @__const.dissect_corosynec_totemnet.check_crypt_type_list, i64 2, i1 false)
  %19 = load i32, ptr @dissect_corosynec_totemnet.last_key_index, align 4
  %20 = icmp ne i32 %19, -1
  br i1 %20, label %21, label %45

21:                                               ; preds = %18
  call void @llvm.lifetime.start.p0(i64 4, ptr %13) #9
  %22 = load ptr, ptr %6, align 8
  %23 = load ptr, ptr %7, align 8
  %24 = load ptr, ptr %8, align 8
  %25 = load i32, ptr @dissect_corosynec_totemnet.last_check_crypt_type_index, align 4
  %26 = sext i32 %25 to i64
  %27 = getelementptr [2 x i8], ptr %12, i64 0, i64 %26
  %28 = load i8, ptr %27, align 1, !range !6, !noundef !7
  %29 = trunc i8 %28 to i1
  %30 = load ptr, ptr @corosync_totemnet_private_keys_list, align 8
  %31 = load i32, ptr @dissect_corosynec_totemnet.last_key_index, align 4
  %32 = sext i32 %31 to i64
  %33 = getelementptr ptr, ptr %30, i64 %32
  %34 = load ptr, ptr %33, align 8
  %35 = call i32 @dissect_corosynec_totemnet_with_decryption(ptr noundef %22, ptr noundef %23, ptr noundef %24, i1 noundef zeroext %29, ptr noundef %34)
  store i32 %35, ptr %13, align 4
  %36 = load i32, ptr %13, align 4
  %37 = icmp sgt i32 %36, 0
  br i1 %37, label %38, label %40

38:                                               ; preds = %21
  %39 = load i32, ptr %13, align 4
  store i32 %39, ptr %5, align 4
  store i32 1, ptr %14, align 4
  br label %42

40:                                               ; preds = %21
  store i32 -1, ptr @dissect_corosynec_totemnet.last_key_index, align 4
  br label %41

41:                                               ; preds = %40
  store i32 0, ptr %14, align 4
  br label %42

42:                                               ; preds = %41, %38
  call void @llvm.lifetime.end.p0(i64 4, ptr %13) #9
  %43 = load i32, ptr %14, align 4
  switch i32 %43, label %95 [
    i32 0, label %44
  ]

44:                                               ; preds = %42
  br label %45

45:                                               ; preds = %44, %18
  store i32 0, ptr %10, align 4
  br label %46

46:                                               ; preds = %91, %45
  %47 = load ptr, ptr @corosync_totemnet_private_keys_list, align 8
  %48 = load i32, ptr %10, align 4
  %49 = sext i32 %48 to i64
  %50 = getelementptr ptr, ptr %47, i64 %49
  %51 = load ptr, ptr %50, align 8
  %52 = icmp ne ptr %51, null
  br i1 %52, label %53, label %94

53:                                               ; preds = %46
  store i32 0, ptr %11, align 4
  br label %54

54:                                               ; preds = %87, %53
  %55 = load i32, ptr %11, align 4
  %56 = icmp slt i32 %55, 2
  br i1 %56, label %57, label %90

57:                                               ; preds = %54
  call void @llvm.lifetime.start.p0(i64 4, ptr %15) #9
  %58 = load ptr, ptr %6, align 8
  %59 = load ptr, ptr %7, align 8
  %60 = load ptr, ptr %8, align 8
  %61 = load i32, ptr %11, align 4
  %62 = sext i32 %61 to i64
  %63 = getelementptr [2 x i8], ptr %12, i64 0, i64 %62
  %64 = load i8, ptr %63, align 1, !range !6, !noundef !7
  %65 = trunc i8 %64 to i1
  %66 = load ptr, ptr @corosync_totemnet_private_keys_list, align 8
  %67 = load i32, ptr %10, align 4
  %68 = sext i32 %67 to i64
  %69 = getelementptr ptr, ptr %66, i64 %68
  %70 = load ptr, ptr %69, align 8
  %71 = call i32 @dissect_corosynec_totemnet_with_decryption(ptr noundef %58, ptr noundef %59, ptr noundef %60, i1 noundef zeroext %65, ptr noundef %70)
  store i32 %71, ptr %15, align 4
  %72 = load i32, ptr %15, align 4
  %73 = icmp sgt i32 %72, 0
  br i1 %73, label %74, label %78

74:                                               ; preds = %57
  %75 = load i32, ptr %10, align 4
  store i32 %75, ptr @dissect_corosynec_totemnet.last_key_index, align 4
  %76 = load i32, ptr %11, align 4
  store i32 %76, ptr @dissect_corosynec_totemnet.last_check_crypt_type_index, align 4
  %77 = load i32, ptr %15, align 4
  store i32 %77, ptr %5, align 4
  store i32 1, ptr %14, align 4
  br label %84

78:                                               ; preds = %57
  %79 = load i32, ptr %15, align 4
  %80 = icmp slt i32 %79, 0
  br i1 %80, label %81, label %82

81:                                               ; preds = %78
  store i32 5, ptr %14, align 4
  br label %84

82:                                               ; preds = %78
  br label %83

83:                                               ; preds = %82
  store i32 0, ptr %14, align 4
  br label %84

84:                                               ; preds = %83, %81, %74
  call void @llvm.lifetime.end.p0(i64 4, ptr %15) #9
  %85 = load i32, ptr %14, align 4
  switch i32 %85, label %95 [
    i32 0, label %86
    i32 5, label %90
  ]

86:                                               ; preds = %84
  br label %87

87:                                               ; preds = %86
  %88 = load i32, ptr %11, align 4
  %89 = add i32 %88, 1
  store i32 %89, ptr %11, align 4
  br label %54, !llvm.loop !8

90:                                               ; preds = %84, %54
  br label %91

91:                                               ; preds = %90
  %92 = load i32, ptr %10, align 4
  %93 = add i32 %92, 1
  store i32 %93, ptr %10, align 4
  br label %46, !llvm.loop !10

94:                                               ; preds = %46
  store i32 0, ptr %14, align 4
  br label %95

95:                                               ; preds = %94, %84, %42
  call void @llvm.lifetime.end.p0(i64 2, ptr %12) #9
  call void @llvm.lifetime.end.p0(i64 4, ptr %11) #9
  call void @llvm.lifetime.end.p0(i64 4, ptr %10) #9
  %96 = load i32, ptr %14, align 4
  switch i32 %96, label %106 [
    i32 0, label %97
    i32 1, label %104
  ]

97:                                               ; preds = %95
  br label %98

98:                                               ; preds = %97, %4
  %99 = load ptr, ptr @corosync_totemsrp_handle, align 8
  %100 = load ptr, ptr %6, align 8
  %101 = load ptr, ptr %7, align 8
  %102 = load ptr, ptr %8, align 8
  %103 = call i32 @call_dissector(ptr noundef %99, ptr noundef %100, ptr noundef %101, ptr noundef %102)
  store i32 %103, ptr %5, align 4
  br label %104

104:                                              ; preds = %98, %95
  %105 = load i32, ptr %5, align 4
  ret i32 %105

106:                                              ; preds = %95
  unreachable
}