; Function Attrs: null_pointer_is_valid sspstrong uwtable
define internal i32 @dissect_corosynec_totemnet(ptr noundef %0, ptr noundef %1, ptr noundef %2, ptr readnone captures(none) %3) #0 {
  %5 = load ptr, ptr @corosync_totemnet_private_keys_list, align 8
  %.not = icmp eq ptr %5, null
  br i1 %.not, label %.critedge, label %6

6:                                                ; preds = %4
  %7 = load i32, ptr @dissect_corosynec_totemnet.last_key_index, align 4
  %.not32 = icmp eq i32 %7, -1
  br i1 %.not32, label %20, label %8

8:                                                ; preds = %6
  %9 = load i32, ptr @dissect_corosynec_totemnet.last_check_crypt_type_index, align 4
  %10 = zext nneg i32 %9 to i64
  %11 = getelementptr [2 x i8], ptr @__const.dissect_corosynec_totemnet.check_crypt_type_list, i64 0, i64 %10
  %12 = load i8, ptr %11, align 1, !range !6, !noundef !7
  %13 = trunc nuw i8 %12 to i1
  %14 = sext i32 %7 to i64
  %15 = getelementptr ptr, ptr %5, i64 %14
  %16 = load ptr, ptr %15, align 8
  %17 = tail call fastcc i32 @dissect_corosynec_totemnet_with_decryption(ptr noundef %0, ptr noundef %1, ptr noundef %2, i1 noundef zeroext %13, ptr noundef %16)
  %18 = icmp slt i32 %17, 1
  br i1 %18, label %19, label %.critedge.thread

19:                                               ; preds = %8
  store i32 -1, ptr @dissect_corosynec_totemnet.last_key_index, align 4
  %.pre = load ptr, ptr @corosync_totemnet_private_keys_list, align 8
  br label %20

20:                                               ; preds = %19, %6
  %21 = phi ptr [ %.pre, %19 ], [ %5, %6 ]
  %22 = load ptr, ptr %21, align 8
  %.not3346 = icmp eq ptr %22, null
  br i1 %.not3346, label %.critedge, label %.preheader

.preheader:                                       ; preds = %20, %37
  %23 = phi i64 [ %40, %37 ], [ 0, %20 ]
  %.02847 = phi i32 [ %38, %37 ], [ 0, %20 ]
  br label %24

24:                                               ; preds = %34, %.preheader
  %indvars.iv = phi i64 [ %indvars.iv.next, %34 ], [ 0, %.preheader ]
  %25 = getelementptr [2 x i8], ptr @__const.dissect_corosynec_totemnet.check_crypt_type_list, i64 0, i64 %indvars.iv
  %26 = load i8, ptr %25, align 1, !range !6, !noundef !7
  %27 = trunc nuw i8 %26 to i1
  %28 = load ptr, ptr @corosync_totemnet_private_keys_list, align 8
  %29 = getelementptr ptr, ptr %28, i64 %23
  %30 = load ptr, ptr %29, align 8
  %31 = tail call fastcc i32 @dissect_corosynec_totemnet_with_decryption(ptr noundef %0, ptr noundef %1, ptr noundef %2, i1 noundef zeroext %27, ptr noundef %30)
  %32 = icmp sgt i32 %31, 0
  br i1 %32, label %.thread, label %34

.thread:                                          ; preds = %24
  %33 = trunc nuw nsw i64 %indvars.iv to i32
  store i32 %.02847, ptr @dissect_corosynec_totemnet.last_key_index, align 4
  store i32 %33, ptr @dissect_corosynec_totemnet.last_check_crypt_type_index, align 4
  br label %.critedge.thread

34:                                               ; preds = %24
  %indvars.iv.next = add nuw nsw i64 %indvars.iv, 1
  %35 = trunc nuw nsw i64 %indvars.iv to i32
  %36 = or i32 %31, %35
  %or.cond = icmp eq i32 %36, 0
  br i1 %or.cond, label %24, label %37, !llvm.loop !8

37:                                               ; preds = %34
  %38 = add i32 %.02847, 1
  %39 = load ptr, ptr @corosync_totemnet_private_keys_list, align 8
  %40 = sext i32 %38 to i64
  %41 = getelementptr ptr, ptr %39, i64 %40
  %42 = load ptr, ptr %41, align 8
  %.not33 = icmp eq ptr %42, null
  br i1 %.not33, label %.critedge, label %.preheader, !llvm.loop !10

.critedge:                                        ; preds = %37, %20, %4
  %43 = load ptr, ptr @corosync_totemsrp_handle, align 8
  %44 = tail call i32 @call_dissector(ptr noundef %43, ptr noundef %0, ptr noundef %1, ptr noundef %2)
  br label %.critedge.thread

.critedge.thread:                                 ; preds = %.thread, %8, %.critedge
  %.7 = phi i32 [ %44, %.critedge ], [ %31, %.thread ], [ %17, %8 ]
  ret i32 %.7
}